libx86simdsortcpp.so.0:_ZN11x86simdsort13partial_qsortIDF16_EEvPT_mmb
libx86simdsortcpp.so.0:_ZN11x86simdsort13partial_qsortIdEEvPT_mmb
libx86simdsortcpp.so.0:_ZN11x86simdsort13partial_qsortIfEEvPT_mmb
libx86simdsortcpp.so.0:_ZN11x86simdsort13partial_qsortIiEEvPT_mmb
libx86simdsortcpp.so.0:_ZN11x86simdsort13partial_qsortIjEEvPT_mmb
libx86simdsortcpp.so.0:_ZN11x86simdsort13partial_qsortIlEEvPT_mmb
libx86simdsortcpp.so.0:_ZN11x86simdsort13partial_qsortImEEvPT_mmb
libx86simdsortcpp.so.0:_ZN11x86simdsort13partial_qsortIsEEvPT_mmb
libx86simdsortcpp.so.0:_ZN11x86simdsort13partial_qsortItEEvPT_mmb
libx86simdsortcpp.so.0:_ZN11x86simdsort14keyvalue_qsortIddEEvPT_PT0_mb
libx86simdsortcpp.so.0:_ZN11x86simdsort14keyvalue_qsortIdfEEvPT_PT0_mb
libx86simdsortcpp.so.0:_ZN11x86simdsort14keyvalue_qsortIdiEEvPT_PT0_mb
libx86simdsortcpp.so.0:_ZN11x86simdsort14keyvalue_qsortIdjEEvPT_PT0_mb
libx86simdsortcpp.so.0:_ZN11x86simdsort14keyvalue_qsortIdlEEvPT_PT0_mb
libx86simdsortcpp.so.0:_ZN11x86simdsort14keyvalue_qsortIdmEEvPT_PT0_mb
libx86simdsortcpp.so.0:_ZN11x86simdsort14keyvalue_qsortIfdEEvPT_PT0_mb
libx86simdsortcpp.so.0:_ZN11x86simdsort14keyvalue_qsortIffEEvPT_PT0_mb
libx86simdsortcpp.so.0:_ZN11x86simdsort14keyvalue_qsortIfiEEvPT_PT0_mb
libx86simdsortcpp.so.0:_ZN11x86simdsort14keyvalue_qsortIfjEEvPT_PT0_mb
libx86simdsortcpp.so.0:_ZN11x86simdsort14keyvalue_qsortIflEEvPT_PT0_mb
libx86simdsortcpp.so.0:_ZN11x86simdsort14keyvalue_qsortIfmEEvPT_PT0_mb
libx86simdsortcpp.so.0:_ZN11x86simdsort14keyvalue_qsortIidEEvPT_PT0_mb
libx86simdsortcpp.so.0:_ZN11x86simdsort14keyvalue_qsortIifEEvPT_PT0_mb
libx86simdsortcpp.so.0:_ZN11x86simdsort14keyvalue_qsortIiiEEvPT_PT0_mb
libx86simdsortcpp.so.0:_ZN11x86simdsort14keyvalue_qsortIijEEvPT_PT0_mb
libx86simdsortcpp.so.0:_ZN11x86simdsort14keyvalue_qsortIilEEvPT_PT0_mb
libx86simdsortcpp.so.0:_ZN11x86simdsort14keyvalue_qsortIimEEvPT_PT0_mb
libx86simdsortcpp.so.0:_ZN11x86simdsort14keyvalue_qsortIjdEEvPT_PT0_mb
libx86simdsortcpp.so.0:_ZN11x86simdsort14keyvalue_qsortIjfEEvPT_PT0_mb
libx86simdsortcpp.so.0:_ZN11x86simdsort14keyvalue_qsortIjiEEvPT_PT0_mb
libx86simdsortcpp.so.0:_ZN11x86simdsort14keyvalue_qsortIjjEEvPT_PT0_mb
libx86simdsortcpp.so.0:_ZN11x86simdsort14keyvalue_qsortIjlEEvPT_PT0_mb
libx86simdsortcpp.so.0:_ZN11x86simdsort14keyvalue_qsortIjmEEvPT_PT0_mb
libx86simdsortcpp.so.0:_ZN11x86simdsort14keyvalue_qsortIldEEvPT_PT0_mb
libx86simdsortcpp.so.0:_ZN11x86simdsort14keyvalue_qsortIlfEEvPT_PT0_mb
libx86simdsortcpp.so.0:_ZN11x86simdsort14keyvalue_qsortIliEEvPT_PT0_mb
libx86simdsortcpp.so.0:_ZN11x86simdsort14keyvalue_qsortIljEEvPT_PT0_mb
libx86simdsortcpp.so.0:_ZN11x86simdsort14keyvalue_qsortIllEEvPT_PT0_mb
libx86simdsortcpp.so.0:_ZN11x86simdsort14keyvalue_qsortIlmEEvPT_PT0_mb
libx86simdsortcpp.so.0:_ZN11x86simdsort14keyvalue_qsortImdEEvPT_PT0_mb
libx86simdsortcpp.so.0:_ZN11x86simdsort14keyvalue_qsortImfEEvPT_PT0_mb
libx86simdsortcpp.so.0:_ZN11x86simdsort14keyvalue_qsortImiEEvPT_PT0_mb
libx86simdsortcpp.so.0:_ZN11x86simdsort14keyvalue_qsortImjEEvPT_PT0_mb
libx86simdsortcpp.so.0:_ZN11x86simdsort14keyvalue_qsortImlEEvPT_PT0_mb
libx86simdsortcpp.so.0:_ZN11x86simdsort14keyvalue_qsortImmEEvPT_PT0_mb
libx86simdsortcpp.so.0:_ZN11x86simdsort5qsortIDF16_EEvPT_mb
libx86simdsortcpp.so.0:_ZN11x86simdsort5qsortIdEEvPT_mb
libx86simdsortcpp.so.0:_ZN11x86simdsort5qsortIfEEvPT_mb
libx86simdsortcpp.so.0:_ZN11x86simdsort5qsortIiEEvPT_mb
libx86simdsortcpp.so.0:_ZN11x86simdsort5qsortIjEEvPT_mb
libx86simdsortcpp.so.0:_ZN11x86simdsort5qsortIlEEvPT_mb
libx86simdsortcpp.so.0:_ZN11x86simdsort5qsortImEEvPT_mb
libx86simdsortcpp.so.0:_ZN11x86simdsort5qsortIsEEvPT_mb
libx86simdsortcpp.so.0:_ZN11x86simdsort5qsortItEEvPT_mb
libx86simdsortcpp.so.0:_ZN11x86simdsort7argsortIDF16_EESt6vectorImSaImEEPT_mb
libx86simdsortcpp.so.0:_ZN11x86simdsort7argsortIdEESt6vectorImSaImEEPT_mb
libx86simdsortcpp.so.0:_ZN11x86simdsort7argsortIfEESt6vectorImSaImEEPT_mb
libx86simdsortcpp.so.0:_ZN11x86simdsort7argsortIiEESt6vectorImSaImEEPT_mb
libx86simdsortcpp.so.0:_ZN11x86simdsort7argsortIjEESt6vectorImSaImEEPT_mb
libx86simdsortcpp.so.0:_ZN11x86simdsort7argsortIlEESt6vectorImSaImEEPT_mb
libx86simdsortcpp.so.0:_ZN11x86simdsort7argsortImEESt6vectorImSaImEEPT_mb
libx86simdsortcpp.so.0:_ZN11x86simdsort7argsortIsEESt6vectorImSaImEEPT_mb
libx86simdsortcpp.so.0:_ZN11x86simdsort7argsortItEESt6vectorImSaImEEPT_mb
libx86simdsortcpp.so.0:_ZN11x86simdsort7qselectIDF16_EEvPT_mmb
libx86simdsortcpp.so.0:_ZN11x86simdsort7qselectIdEEvPT_mmb
libx86simdsortcpp.so.0:_ZN11x86simdsort7qselectIfEEvPT_mmb
libx86simdsortcpp.so.0:_ZN11x86simdsort7qselectIiEEvPT_mmb
libx86simdsortcpp.so.0:_ZN11x86simdsort7qselectIjEEvPT_mmb
libx86simdsortcpp.so.0:_ZN11x86simdsort7qselectIlEEvPT_mmb
libx86simdsortcpp.so.0:_ZN11x86simdsort7qselectImEEvPT_mmb
libx86simdsortcpp.so.0:_ZN11x86simdsort7qselectIsEEvPT_mmb
libx86simdsortcpp.so.0:_ZN11x86simdsort7qselectItEEvPT_mmb
libx86simdsortcpp.so.0:_ZN11x86simdsort9argselectIDF16_EESt6vectorImSaImEEPT_mmb
libx86simdsortcpp.so.0:_ZN11x86simdsort9argselectIdEESt6vectorImSaImEEPT_mmb
libx86simdsortcpp.so.0:_ZN11x86simdsort9argselectIfEESt6vectorImSaImEEPT_mmb
libx86simdsortcpp.so.0:_ZN11x86simdsort9argselectIiEESt6vectorImSaImEEPT_mmb
libx86simdsortcpp.so.0:_ZN11x86simdsort9argselectIjEESt6vectorImSaImEEPT_mmb
libx86simdsortcpp.so.0:_ZN11x86simdsort9argselectIlEESt6vectorImSaImEEPT_mmb
libx86simdsortcpp.so.0:_ZN11x86simdsort9argselectImEESt6vectorImSaImEEPT_mmb
libx86simdsortcpp.so.0:_ZN11x86simdsort9argselectIsEESt6vectorImSaImEEPT_mmb
libx86simdsortcpp.so.0:_ZN11x86simdsort9argselectItEESt6vectorImSaImEEPT_mmb
libx86simdsortcpp.so.0:_ZN3xss6avx51214keyvalue_qsortIddEEvPT_PT0_mb
libx86simdsortcpp.so.0:_ZN3xss6avx51214keyvalue_qsortIdfEEvPT_PT0_mb
libx86simdsortcpp.so.0:_ZN3xss6avx51214keyvalue_qsortIdiEEvPT_PT0_mb
libx86simdsortcpp.so.0:_ZN3xss6avx51214keyvalue_qsortIdjEEvPT_PT0_mb
libx86simdsortcpp.so.0:_ZN3xss6avx51214keyvalue_qsortIdlEEvPT_PT0_mb
libx86simdsortcpp.so.0:_ZN3xss6avx51214keyvalue_qsortIdmEEvPT_PT0_mb
libx86simdsortcpp.so.0:_ZN3xss6avx51214keyvalue_qsortIfdEEvPT_PT0_mb
libx86simdsortcpp.so.0:_ZN3xss6avx51214keyvalue_qsortIffEEvPT_PT0_mb
libx86simdsortcpp.so.0:_ZN3xss6avx51214keyvalue_qsortIfiEEvPT_PT0_mb
libx86simdsortcpp.so.0:_ZN3xss6avx51214keyvalue_qsortIfjEEvPT_PT0_mb
libx86simdsortcpp.so.0:_ZN3xss6avx51214keyvalue_qsortIflEEvPT_PT0_mb
libx86simdsortcpp.so.0:_ZN3xss6avx51214keyvalue_qsortIfmEEvPT_PT0_mb
libx86simdsortcpp.so.0:_ZN3xss6avx51214keyvalue_qsortIidEEvPT_PT0_mb
libx86simdsortcpp.so.0:_ZN3xss6avx51214keyvalue_qsortIifEEvPT_PT0_mb
libx86simdsortcpp.so.0:_ZN3xss6avx51214keyvalue_qsortIiiEEvPT_PT0_mb
libx86simdsortcpp.so.0:_ZN3xss6avx51214keyvalue_qsortIijEEvPT_PT0_mb
libx86simdsortcpp.so.0:_ZN3xss6avx51214keyvalue_qsortIilEEvPT_PT0_mb
libx86simdsortcpp.so.0:_ZN3xss6avx51214keyvalue_qsortIimEEvPT_PT0_mb
libx86simdsortcpp.so.0:_ZN3xss6avx51214keyvalue_qsortIjdEEvPT_PT0_mb
libx86simdsortcpp.so.0:_ZN3xss6avx51214keyvalue_qsortIjfEEvPT_PT0_mb
libx86simdsortcpp.so.0:_ZN3xss6avx51214keyvalue_qsortIjiEEvPT_PT0_mb
libx86simdsortcpp.so.0:_ZN3xss6avx51214keyvalue_qsortIjjEEvPT_PT0_mb
libx86simdsortcpp.so.0:_ZN3xss6avx51214keyvalue_qsortIjlEEvPT_PT0_mb
libx86simdsortcpp.so.0:_ZN3xss6avx51214keyvalue_qsortIjmEEvPT_PT0_mb
libx86simdsortcpp.so.0:_ZN3xss6avx51214keyvalue_qsortIldEEvPT_PT0_mb
libx86simdsortcpp.so.0:_ZN3xss6avx51214keyvalue_qsortIlfEEvPT_PT0_mb
libx86simdsortcpp.so.0:_ZN3xss6avx51214keyvalue_qsortIliEEvPT_PT0_mb
libx86simdsortcpp.so.0:_ZN3xss6avx51214keyvalue_qsortIljEEvPT_PT0_mb
libx86simdsortcpp.so.0:_ZN3xss6avx51214keyvalue_qsortIllEEvPT_PT0_mb
libx86simdsortcpp.so.0:_ZN3xss6avx51214keyvalue_qsortIlmEEvPT_PT0_mb
libx86simdsortcpp.so.0:_ZN3xss6avx51214keyvalue_qsortImdEEvPT_PT0_mb
libx86simdsortcpp.so.0:_ZN3xss6avx51214keyvalue_qsortImfEEvPT_PT0_mb
libx86simdsortcpp.so.0:_ZN3xss6avx51214keyvalue_qsortImiEEvPT_PT0_mb
libx86simdsortcpp.so.0:_ZN3xss6avx51214keyvalue_qsortImjEEvPT_PT0_mb
libx86simdsortcpp.so.0:_ZN3xss6avx51214keyvalue_qsortImlEEvPT_PT0_mb
libx86simdsortcpp.so.0:_ZN3xss6avx51214keyvalue_qsortImmEEvPT_PT0_mb
libx86simdsortcpp.so.0:_ZN3xss6scalar14keyvalue_qsortIddEEvPT_PT0_mb
libx86simdsortcpp.so.0:_ZN3xss6scalar14keyvalue_qsortIdfEEvPT_PT0_mb
libx86simdsortcpp.so.0:_ZN3xss6scalar14keyvalue_qsortIdiEEvPT_PT0_mb
libx86simdsortcpp.so.0:_ZN3xss6scalar14keyvalue_qsortIdjEEvPT_PT0_mb
libx86simdsortcpp.so.0:_ZN3xss6scalar14keyvalue_qsortIdlEEvPT_PT0_mb
libx86simdsortcpp.so.0:_ZN3xss6scalar14keyvalue_qsortIdmEEvPT_PT0_mb
libx86simdsortcpp.so.0:_ZN3xss6scalar14keyvalue_qsortIfdEEvPT_PT0_mb
libx86simdsortcpp.so.0:_ZN3xss6scalar14keyvalue_qsortIffEEvPT_PT0_mb
libx86simdsortcpp.so.0:_ZN3xss6scalar14keyvalue_qsortIfiEEvPT_PT0_mb
libx86simdsortcpp.so.0:_ZN3xss6scalar14keyvalue_qsortIfjEEvPT_PT0_mb
libx86simdsortcpp.so.0:_ZN3xss6scalar14keyvalue_qsortIflEEvPT_PT0_mb
libx86simdsortcpp.so.0:_ZN3xss6scalar14keyvalue_qsortIfmEEvPT_PT0_mb
libx86simdsortcpp.so.0:_ZN3xss6scalar14keyvalue_qsortIidEEvPT_PT0_mb
libx86simdsortcpp.so.0:_ZN3xss6scalar14keyvalue_qsortIifEEvPT_PT0_mb
libx86simdsortcpp.so.0:_ZN3xss6scalar14keyvalue_qsortIiiEEvPT_PT0_mb
libx86simdsortcpp.so.0:_ZN3xss6scalar14keyvalue_qsortIijEEvPT_PT0_mb
libx86simdsortcpp.so.0:_ZN3xss6scalar14keyvalue_qsortIilEEvPT_PT0_mb
libx86simdsortcpp.so.0:_ZN3xss6scalar14keyvalue_qsortIimEEvPT_PT0_mb
libx86simdsortcpp.so.0:_ZN3xss6scalar14keyvalue_qsortIjdEEvPT_PT0_mb
libx86simdsortcpp.so.0:_ZN3xss6scalar14keyvalue_qsortIjfEEvPT_PT0_mb
libx86simdsortcpp.so.0:_ZN3xss6scalar14keyvalue_qsortIjiEEvPT_PT0_mb
libx86simdsortcpp.so.0:_ZN3xss6scalar14keyvalue_qsortIjjEEvPT_PT0_mb
libx86simdsortcpp.so.0:_ZN3xss6scalar14keyvalue_qsortIjlEEvPT_PT0_mb
libx86simdsortcpp.so.0:_ZN3xss6scalar14keyvalue_qsortIjmEEvPT_PT0_mb
libx86simdsortcpp.so.0:_ZN3xss6scalar14keyvalue_qsortIldEEvPT_PT0_mb
libx86simdsortcpp.so.0:_ZN3xss6scalar14keyvalue_qsortIlfEEvPT_PT0_mb
libx86simdsortcpp.so.0:_ZN3xss6scalar14keyvalue_qsortIliEEvPT_PT0_mb
libx86simdsortcpp.so.0:_ZN3xss6scalar14keyvalue_qsortIljEEvPT_PT0_mb
libx86simdsortcpp.so.0:_ZN3xss6scalar14keyvalue_qsortIllEEvPT_PT0_mb
libx86simdsortcpp.so.0:_ZN3xss6scalar14keyvalue_qsortIlmEEvPT_PT0_mb
libx86simdsortcpp.so.0:_ZN3xss6scalar14keyvalue_qsortImdEEvPT_PT0_mb
libx86simdsortcpp.so.0:_ZN3xss6scalar14keyvalue_qsortImfEEvPT_PT0_mb
libx86simdsortcpp.so.0:_ZN3xss6scalar14keyvalue_qsortImiEEvPT_PT0_mb
libx86simdsortcpp.so.0:_ZN3xss6scalar14keyvalue_qsortImjEEvPT_PT0_mb
libx86simdsortcpp.so.0:_ZN3xss6scalar14keyvalue_qsortImlEEvPT_PT0_mb
libx86simdsortcpp.so.0:_ZN3xss6scalar14keyvalue_qsortImmEEvPT_PT0_mb
